target datalayout = "e-m:e-p270:32:32-p271:32:32-p272:64:64-i64:64-i128:128-f80:128-n8:16:32:64-S128"
target triple = "x86_64-unknown-linux-gnu"

%struct.CPUWatchpoint = type { i64, i64, i64, %struct.MemTxAttrs, i32, %union.anon }
%struct.MemTxAttrs = type { i32 }
%union.anon = type { %struct.QTailQLink }
%struct.QTailQLink = type { ptr, ptr }
%struct.CPUState = type { %struct.DeviceState, ptr, i32, i32, ptr, i32, i8, i8, ptr, i8, i8, i8, i8, i8, i8, i8, i8, i32, i32, i32, i32, i64, i64, i64, [1 x %struct.__jmp_buf_tag], %struct.QemuMutex, %struct.anon, ptr, i32, ptr, ptr, ptr, ptr, i32, i32, %union.anon.0, %union.anon.1, %union.anon.2, ptr, ptr, i64, i32, ptr, ptr, ptr, i32, i64, i32, %struct.QemuLockCnt, [1 x i64], ptr, i32, i32, i32, i32, i32, ptr, i8, i8, i64, i8, i8, ptr, [8 x i8], [0 x i8], %struct.CPUNegativeOffsetState }
%struct.DeviceState = type { %struct.Object, ptr, ptr, i8, i8, i64, ptr, i32, i8, ptr, %struct.NamedGPIOListHead, %struct.NamedClockListHead, %struct.BusStateHead, i32, i32, i32, %struct.ResettableState, ptr, %struct.MemReentrancyGuard }
%struct.Object = type { ptr, ptr, ptr, i32, ptr }
%struct.NamedGPIOListHead = type { ptr }
%struct.NamedClockListHead = type { ptr }
%struct.BusStateHead = type { ptr }
%struct.ResettableState = type { i32, i8, i8 }
%struct.MemReentrancyGuard = type { i8 }
%struct.__jmp_buf_tag = type { [8 x i64], i32, %struct.__sigset_t }
%struct.__sigset_t = type { [16 x i64] }
%struct.QemuMutex = type { %union.pthread_mutex_t, i8 }
%union.pthread_mutex_t = type { %struct.__pthread_mutex_s }
%struct.__pthread_mutex_s = type { i32, i32, i32, i32, i32, i16, i16, %struct.__pthread_internal_list }
%struct.__pthread_internal_list = type { ptr, ptr }
%struct.anon = type { ptr, ptr }
%union.anon.0 = type { %struct.QTailQLink }
%union.anon.1 = type { %struct.QTailQLink }
%union.anon.2 = type { %struct.QTailQLink }
%struct.QemuLockCnt = type { i32 }
%struct.CPUNegativeOffsetState = type { %struct.CPUTLB, %union.IcountDecr, i8, [11 x i8] }
%struct.CPUTLB = type { %struct.CPUTLBCommon, [16 x %struct.CPUTLBDesc], [16 x %struct.CPUTLBDescFast] }
%struct.CPUTLBCommon = type { %struct.QemuSpin, i16, i64, i64, i64 }
%struct.QemuSpin = type { i32 }
%struct.CPUTLBDesc = type { i64, i64, i64, i64, i64, i64, [8 x %union.CPUTLBEntry], [8 x %struct.CPUTLBEntryFull], ptr }
%union.CPUTLBEntry = type { %struct.anon.3 }
%struct.anon.3 = type { i64, i64, i64, i64 }
%struct.CPUTLBEntryFull = type { i64, i64, %struct.MemTxAttrs, i8, i8, [3 x i8], %union.anon.4 }
%union.anon.4 = type { %struct.anon.5 }
%struct.anon.5 = type { i8, i8, i8 }
%struct.CPUTLBDescFast = type { i64, ptr }
%union.IcountDecr = type { i32 }

; Function Attrs: nounwind sspstrong uwtable
define internal zeroext i1 @watchpoint_address_matches(ptr noundef %wp, i64 noundef %addr, i64 noundef %len) #0 {
entry:
  %wp.addr = alloca ptr, align 8
  %addr.addr = alloca i64, align 8
  %len.addr = alloca i64, align 8
  %wpend = alloca i64, align 8
  %addrend = alloca i64, align 8
  store ptr %wp, ptr %wp.addr, align 8
  store i64 %addr, ptr %addr.addr, align 8
  store i64 %len, ptr %len.addr, align 8
  %0 = load ptr, ptr %wp.addr, align 8
  %vaddr = getelementptr inbounds %struct.CPUWatchpoint, ptr %0, i32 0, i32 0
  %1 = load i64, ptr %vaddr, align 8
  %2 = load ptr, ptr %wp.addr, align 8
  %len1 = getelementptr inbounds %struct.CPUWatchpoint, ptr %2, i32 0, i32 1
  %3 = load i64, ptr %len1, align 8
  %add = add i64 %1, %3
  %sub = sub i64 %add, 1
  store i64 %sub, ptr %wpend, align 8
  %4 = load i64, ptr %addr.addr, align 8
  %5 = load i64, ptr %len.addr, align 8
  %add2 = add i64 %4, %5
  %sub3 = sub i64 %add2, 1
  store i64 %sub3, ptr %addrend, align 8
  %6 = load i64, ptr %addr.addr, align 8
  %7 = load i64, ptr %wpend, align 8
  %cmp = icmp ugt i64 %6, %7
  br i1 %cmp, label %lor.end, label %lor.rhs

lor.rhs:                                          ; preds = %entry
  %8 = load ptr, ptr %wp.addr, align 8
  %vaddr4 = getelementptr inbounds %struct.CPUWatchpoint, ptr %8, i32 0, i32 0
  %9 = load i64, ptr %vaddr4, align 8
  %10 = load i64, ptr %addrend, align 8
  %cmp5 = icmp ugt i64 %9, %10
  br label %lor.end

lor.end:                                          ; preds = %lor.rhs, %entry
  %11 = phi i1 [ true, %entry ], [ %cmp5, %lor.rhs ]
  %lnot = xor i1 %11, true
  ret i1 %lnot
}

; Function Attrs: nounwind sspstrong uwtable
define dso_local i32 @cpu_watchpoint_address_matches(ptr noundef %cpu, i64 noundef %addr, i64 noundef %len) #0 {
entry:
  %cpu.addr = alloca ptr, align 8
  %addr.addr = alloca i64, align 8
  %len.addr = alloca i64, align 8
  %wp = alloca ptr, align 8
  %ret = alloca i32, align 4
  store ptr %cpu, ptr %cpu.addr, align 8
  store i64 %addr, ptr %addr.addr, align 8
  store i64 %len, ptr %len.addr, align 8
  store i32 0, ptr %ret, align 4
  %0 = load ptr, ptr %cpu.addr, align 8
  %watchpoints = getelementptr inbounds %struct.CPUState, ptr %0, i32 0, i32 37
  %1 = load ptr, ptr %watchpoints, align 8
  store ptr %1, ptr %wp, align 8
  br label %for.cond

for.cond:                                         ; preds = %for.inc, %entry
  %2 = load ptr, ptr %wp, align 8
  %tobool = icmp ne ptr %2, null
  br i1 %tobool, label %for.body, label %for.end

for.body:                                         ; preds = %for.cond
  %3 = load ptr, ptr %wp, align 8
  %4 = load i64, ptr %addr.addr, align 8
  %5 = load i64, ptr %len.addr, align 8
  %call = call zeroext i1 @watchpoint_address_matches(ptr noundef %3, i64 noundef %4, i64 noundef %5)
  br i1 %call, label %if.then, label %if.end

if.then:                                          ; preds = %for.body
  %6 = load ptr, ptr %wp, align 8
  %flags = getelementptr inbounds %struct.CPUWatchpoint, ptr %6, i32 0, i32 4
  %7 = load i32, ptr %flags, align 4
  %8 = load i32, ptr %ret, align 4
  %or = or i32 %8, %7
  store i32 %or, ptr %ret, align 4
  br label %if.end

if.end:                                           ; preds = %if.then, %for.body
  br label %for.inc

for.inc:                                          ; preds = %if.end
  %9 = load ptr, ptr %wp, align 8
  %entry1 = getelementptr inbounds %struct.CPUWatchpoint, ptr %9, i32 0, i32 5
  %10 = load ptr, ptr %entry1, align 8
  store ptr %10, ptr %wp, align 8
  br label %for.cond, !llvm.loop !8

for.end:                                          ; preds = %for.cond
  %11 = load i32, ptr %ret, align 4
  ret i32 %11
}