; Function Attrs: nofree norecurse nosync nounwind sspstrong memory(read, inaccessiblemem: none) uwtable
define dso_local i32 @cpu_watchpoint_address_matches(ptr noundef readonly captures(none) %cpu, i64 noundef %addr, i64 noundef %len) local_unnamed_addr #3 {
entry:
  %watchpoints = getelementptr inbounds nuw i8, ptr %cpu, i64 600
  %wp.06 = load ptr, ptr %watchpoints, align 8
  %tobool.not7 = icmp eq ptr %wp.06, null
  br i1 %tobool.not7, label %for.end, label %for.body.lr.ph

for.body.lr.ph:                                   ; preds = %entry
  %add2.i = add i64 %addr, -1
  %sub3.i = add i64 %add2.i, %len
  br label %for.body

for.body:                                         ; preds = %for.body.lr.ph, %for.inc
  %wp.09 = phi ptr [ %wp.06, %for.body.lr.ph ], [ %wp.0, %for.inc ]
  %ret.08 = phi i32 [ 0, %for.body.lr.ph ], [ %ret.1, %for.inc ]
  %wp.0.val = load i64, ptr %wp.09, align 8
  %0 = getelementptr i8, ptr %wp.09, i64 8
  %wp.0.val5 = load i64, ptr %0, align 8
  %add.i = add i64 %wp.0.val, -1
  %sub.i = add i64 %add.i, %wp.0.val5
  %cmp.i = icmp ule i64 %addr, %sub.i
  %cmp5.i = icmp ule i64 %wp.0.val, %sub3.i
  %lnot.i = and i1 %cmp5.i, %cmp.i
  br i1 %lnot.i, label %if.then, label %for.inc

if.then:                                          ; preds = %for.body
  %flags = getelementptr inbounds nuw i8, ptr %wp.09, i64 28
  %1 = load i32, ptr %flags, align 4
  %or = or i32 %1, %ret.08
  br label %for.inc

for.inc:                                          ; preds = %for.body, %if.then
  %ret.1 = phi i32 [ %or, %if.then ], [ %ret.08, %for.body ]
  %entry1 = getelementptr inbounds nuw i8, ptr %wp.09, i64 32
  %wp.0 = load ptr, ptr %entry1, align 8
  %tobool.not = icmp eq ptr %wp.0, null
  br i1 %tobool.not, label %for.end, label %for.body, !llvm.loop !8

for.end:                                          ; preds = %for.inc, %entry
  %ret.0.lcssa = phi i32 [ 0, %entry ], [ %ret.1, %for.inc ]
  ret i32 %ret.0.lcssa
}